Certificate:
    Data:
        Version: 3 (0x2)
        Serial Number:
            bd:b8:79:a4:64:ba:e0:40
        Signature Algorithm: sha1WithRSAEncryption
        Issuer: C=AU, ST=Some-State, O=Internet Widgits Pty Ltd, CN=127.0.0.1
        Validity
            Not Before: Nov  7 05:48:11 2012 GMT
            Not After : Nov  7 05:48:11 2013 GMT
        Subject: C=AU, ST=Some-State, O=Internet Widgits Pty Ltd, CN=127.0.0.1
        Subject Public Key Info:
            Public Key Algorithm: rsaEncryption
            RSA Public Key: (1024 bit)
                Modulus (1024 bit):
                    00:a1:0b:ea:d5:65:70:6f:90:42:7c:2d:64:41:c5:
                    83:9e:37:d9:6f:f2:e4:94:e2:cd:d7:fb:ce:9a:fe:
                    d0:05:3f:c8:40:fa:93:21:9f:89:a5:36:8d:58:b2:
                    ec:96:a6:98:d4:50:b9:86:08:f7:1f:10:7f:71:5d:
                    f1:e4:07:66:bd:c4:2a:f3:81:fa:d7:f4:47:40:03:
                    17:4f:ee:39:4b:ae:9f:e1:7b:4d:6d:36:ea:00:b5:
                    0f:23:90:90:ba:45:74:4a:c9:d0:36:61:21:b2:be:
                    8d:79:7c:3c:6b:42:3f:c9:32:2d:db:dd:4f:6a:23:
                    c8:6e:ac:aa:47:35:d1:2c:d9
                Exponent: 65537 (0x10001)
        X509v3 extensions:
            X509v3 Basic Constraints: 
                CA:FALSE
            Netscape Comment: 
                OpenSSL Generated Certificate
            X509v3 Subject Key Identifier: 
                FD:33:5D:EB:E5:9B:89:B5:8E:8E:8A:F1:DA:01:49:15:ED:9C:62:C9
            X509v3 Authority Key Identifier: 
                keyid:97:3B:92:BE:2B:98:29:B3:58:39:70:C1:B3:4C:62:7D:A3:09:D8:B2

    Signature Algorithm: sha1WithRSAEncryption
        92:f9:f5:52:35:36:37:3b:10:75:c3:99:d0:42:2d:fa:88:4a:
        77:8a:54:51:79:54:c3:fd:46:7a:4b:46:3a:2e:ff:bd:06:c1:
        64:2b:ef:4b:20:72:09:cb:85:bb:47:1b:f7:6e:e7:76:8b:58:
        33:a3:38:e6:22:c0:8e:29:0a:9b:bb:89:a5:3c:26:6a:42:f7:
        c8:bc:81:56:4e:f5:9b:9d:7b:07:1a:2d:52:c3:08:48:a0:28:
        80:86:28:24:46:45:40:a9:6e:54:2b:58:d7:be:3f:17:f1:a1:
        d2:54:f8:e3:a3:8d:d1:c8:4b:09:4b:01:22:c1:33:e2:9b:7e:
        66:28
-----BEGIN CERTIFICATE-----
MIICqzCCAhSgAwIBAgIJAL24eaRkuuBAMA0GCSqGSIb3DQEBBQUAMFkxCzAJBgNV
BAYTAkFVMRMwEQYDVQQIEwpTb21lLVN0YXRlMSEwHwYDVQQKExhJbnRlcm5ldCBX
aWRnaXRzIFB0eSBMdGQxEjAQBgNVBAMTCTEyNy4wLjAuMTAeFw0xMjExMDcwNTQ4
MTFaFw0xMzExMDcwNTQ4MTFaMFkxCzAJBgNVBAYTAkFVMRMwEQYDVQQIEwpTb21l
LVN0YXRlMSEwHwYDVQQKExhJbnRlcm5ldCBXaWRnaXRzIFB0eSBMdGQxEjAQBgNV
BAMTCTEyNy4wLjAuMTCBnzANBgkqhkiG9w0BAQEFAAOBjQAwgYkCgYEAoQvq1WVw
b5BCfC1kQcWDnjfZb/LklOLN1/vOmv7QBT/IQPqTIZ+JpTaNWLLslqaY1FC5hgj3
HxB/cV3x5AdmvcQq84H61/RHQAMXT+45S66f4XtNbTbqALUPI5CQukV0SsnQNmEh
sr6NeXw8a0I/yTIt291PaiPIbqyqRzXRLNkCAwEAAaN7MHkwCQYDVR0TBAIwADAs
BglghkgBhvhCAQ0EHxYdT3BlblNTTCBHZW5lcmF0ZWQgQ2VydGlmaWNhdGUwHQYD
VR0OBBYEFP0zXevlm4m1jo6K8doBSRXtnGLJMB8GA1UdIwQYMBaAFJc7kr4rmCmz
WDlwwbNMYn2jCdiyMA0GCSqGSIb3DQEBBQUAA4GBAJL59VI1Njc7EHXDmdBCLfqI
SneKVFF5VMP9RnpLRjou/70GwWQr70sgcgnLhbtHG/du53aLWDOjOOYiwI4pCpu7
iaU8JmpC98i8gVZO9ZudewcaLVLDCEigKICGKCRGRUCpblQrWNe+PxfxodJU+OOj
jdHISwlLASLBM+KbfmYo
-----END CERTIFICATE-----
