Certificate:
    Data:
        Version: 3 (0x2)
        Serial Number:
            bd:b8:79:a4:64:ba:e0:3f
        Signature Algorithm: sha1WithRSAEncryption
        Issuer: C=AU, ST=Some-State, O=Internet Widgits Pty Ltd, CN=127.0.0.1
        Validity
            Not Before: Nov  7 05:43:39 2012 GMT
            Not After : Nov  7 05:43:39 2015 GMT
        Subject: C=AU, ST=Some-State, O=Internet Widgits Pty Ltd, CN=127.0.0.1
        Subject Public Key Info:
            Public Key Algorithm: rsaEncryption
            RSA Public Key: (1024 bit)
                Modulus (1024 bit):
                    00:ea:19:c6:49:d8:16:ba:fe:96:ff:72:4c:4e:03:
                    44:e3:fa:6f:11:19:64:a4:6d:5a:4b:c8:0b:80:ca:
                    73:1e:3a:97:1f:44:62:9f:5a:8a:d9:ec:fb:23:07:
                    d3:98:76:36:4e:ca:37:fc:5b:02:d3:6d:3a:d5:22:
                    f6:5a:40:11:57:00:97:2c:88:9e:fe:b2:ed:41:7e:
                    50:1f:0f:bc:f5:52:c9:65:a3:05:8a:0e:d4:d8:81:
                    ce:94:ac:a1:e5:c7:8a:af:40:9a:d7:82:d3:12:6a:
                    26:e5:aa:6d:20:47:e6:1d:88:9d:12:ad:a2:0e:89:
                    53:8c:c0:21:99:49:21:d9:67
                Exponent: 65537 (0x10001)
        X509v3 extensions:
            X509v3 Subject Key Identifier: 
                97:3B:92:BE:2B:98:29:B3:58:39:70:C1:B3:4C:62:7D:A3:09:D8:B2
            X509v3 Authority Key Identifier: 
                keyid:97:3B:92:BE:2B:98:29:B3:58:39:70:C1:B3:4C:62:7D:A3:09:D8:B2
                DirName:/C=AU/ST=Some-State/O=Internet Widgits Pty Ltd/CN=127.0.0.1
                serial:BD:B8:79:A4:64:BA:E0:3F

            X509v3 Basic Constraints: 
                CA:TRUE
    Signature Algorithm: sha1WithRSAEncryption
        ba:8e:10:19:61:40:2a:80:70:c6:94:3b:c1:0d:19:ae:8e:bf:
        69:21:80:eb:9f:66:8b:15:49:3e:5a:30:15:65:a7:c5:1e:e7:
        ec:91:ac:b7:16:69:91:91:4e:53:e0:d3:95:1d:6a:5d:12:6b:
        42:03:dd:e0:4e:88:37:d5:af:f1:9a:5d:03:ec:ba:bb:47:07:
        fc:c0:33:3c:5e:7a:fb:fc:a6:4e:63:80:75:bf:c2:f2:85:e7:
        91:10:ab:67:da:f7:b5:37:52:7d:ed:82:90:b5:1d:0d:14:f7:
        41:ce:48:9b:6e:5e:19:6d:bd:55:b6:bc:55:21:75:f9:ca:ff:
        88:27
-----BEGIN CERTIFICATE-----
MIIC7zCCAligAwIBAgIJAL24eaRkuuA/MA0GCSqGSIb3DQEBBQUAMFkxCzAJBgNV
BAYTAkFVMRMwEQYDVQQIEwpTb21lLVN0YXRlMSEwHwYDVQQKExhJbnRlcm5ldCBX
aWRnaXRzIFB0eSBMdGQxEjAQBgNVBAMTCTEyNy4wLjAuMTAeFw0xMjExMDcwNTQz
MzlaFw0xNTExMDcwNTQzMzlaMFkxCzAJBgNVBAYTAkFVMRMwEQYDVQQIEwpTb21l
LVN0YXRlMSEwHwYDVQQKExhJbnRlcm5ldCBXaWRnaXRzIFB0eSBMdGQxEjAQBgNV
BAMTCTEyNy4wLjAuMTCBnzANBgkqhkiG9w0BAQEFAAOBjQAwgYkCgYEA6hnGSdgW
uv6W/3JMTgNE4/pvERlkpG1aS8gLgMpzHjqXH0Rin1qK2ez7IwfTmHY2Tso3/FsC
02061SL2WkARVwCXLIie/rLtQX5QHw+89VLJZaMFig7U2IHOlKyh5ceKr0Ca14LT
Emom5aptIEfmHYidEq2iDolTjMAhmUkh2WcCAwEAAaOBvjCBuzAdBgNVHQ4EFgQU
lzuSviuYKbNYOXDBs0xifaMJ2LIwgYsGA1UdIwSBgzCBgIAUlzuSviuYKbNYOXDB
s0xifaMJ2LKhXaRbMFkxCzAJBgNVBAYTAkFVMRMwEQYDVQQIEwpTb21lLVN0YXRl
MSEwHwYDVQQKExhJbnRlcm5ldCBXaWRnaXRzIFB0eSBMdGQxEjAQBgNVBAMTCTEy
Ny4wLjAuMYIJAL24eaRkuuA/MAwGA1UdEwQFMAMBAf8wDQYJKoZIhvcNAQEFBQAD
gYEAuo4QGWFAKoBwxpQ7wQ0Zro6/aSGA659mixVJPlowFWWnxR7n7JGstxZpkZFO
U+DTlR1qXRJrQgPd4E6IN9Wv8ZpdA+y6u0cH/MAzPF56+/ymTmOAdb/C8oXnkRCr
Z9r3tTdSfe2CkLUdDRT3Qc5Im25eGW29Vba8VSF1+cr/iCc=
-----END CERTIFICATE-----
